target datalayout = "e-m:e-p270:32:32-p271:32:32-p272:64:64-i64:64-i128:128-f80:128-n8:16:32:64-S128"
target triple = "x86_64-pc-linux-gnu"

%class.BigInteger = type { i32, %class.BigUnsigned }
%class.BigUnsigned = type { %class.NumberlikeArray }
%class.NumberlikeArray = type { i32, i32, ptr }

@_ZTIPKc = external constant ptr
@.str.6 = private unnamed_addr constant [81 x i8] c"BigInteger::to<Primitive>: Cannot convert a negative integer to an unsigned type\00", align 1
@.str.7 = private unnamed_addr constant [74 x i8] c"BigUnsigned::to<Primitive>: Value is too big to fit in the requested type\00", align 1

; Function Attrs: mustprogress uwtable
define linkonce_odr noundef i64 @_ZNK11BigUnsigned18convertToPrimitiveImEET_v(ptr noundef nonnull align 8 dereferenceable(16) %0) #0 comdat align 2 {
  %2 = alloca i64, align 8
  %3 = alloca ptr, align 8
  %4 = alloca i64, align 8
  %5 = alloca i32, align 4
  store ptr %0, ptr %3, align 8, !tbaa !18
  %6 = load ptr, ptr %3, align 8
  %7 = getelementptr inbounds nuw %class.NumberlikeArray, ptr %6, i32 0, i32 1
  %8 = load i32, ptr %7, align 4, !tbaa !32
  %9 = icmp eq i32 %8, 0
  br i1 %9, label %10, label %11

10:                                               ; preds = %1
  store i64 0, ptr %2, align 8
  br label %35

11:                                               ; preds = %1
  %12 = getelementptr inbounds nuw %class.NumberlikeArray, ptr %6, i32 0, i32 1
  %13 = load i32, ptr %12, align 4, !tbaa !32
  %14 = icmp eq i32 %13, 1
  br i1 %14, label %15, label %32

15:                                               ; preds = %11
  call void @llvm.lifetime.start.p0(i64 8, ptr %4) #9
  %16 = getelementptr inbounds nuw %class.NumberlikeArray, ptr %6, i32 0, i32 2
  %17 = load ptr, ptr %16, align 8, !tbaa !27
  %18 = getelementptr inbounds i64, ptr %17, i64 0
  %19 = load i64, ptr %18, align 8, !tbaa !28
  store i64 %19, ptr %4, align 8, !tbaa !28
  %20 = load i64, ptr %4, align 8, !tbaa !28
  %21 = getelementptr inbounds nuw %class.NumberlikeArray, ptr %6, i32 0, i32 2
  %22 = load ptr, ptr %21, align 8, !tbaa !27
  %23 = getelementptr inbounds i64, ptr %22, i64 0
  %24 = load i64, ptr %23, align 8, !tbaa !28
  %25 = icmp eq i64 %20, %24
  br i1 %25, label %26, label %28

26:                                               ; preds = %15
  %27 = load i64, ptr %4, align 8, !tbaa !28
  store i64 %27, ptr %2, align 8
  store i32 1, ptr %5, align 4
  br label %29

28:                                               ; preds = %15
  store i32 0, ptr %5, align 4
  br label %29

29:                                               ; preds = %28, %26
  call void @llvm.lifetime.end.p0(i64 8, ptr %4) #9
  %30 = load i32, ptr %5, align 4
  switch i32 %30, label %37 [
    i32 0, label %31
    i32 1, label %35
  ]

31:                                               ; preds = %29
  br label %32

32:                                               ; preds = %31, %11
  br label %33

33:                                               ; preds = %32
  %34 = call ptr @__cxa_allocate_exception(i64 8) #9
  store ptr @.str.7, ptr %34, align 16, !tbaa !23
  call void @__cxa_throw(ptr %34, ptr @_ZTIPKc, ptr null) #10
  unreachable

35:                                               ; preds = %29, %10
  %36 = load i64, ptr %2, align 8
  ret i64 %36

37:                                               ; preds = %29
  unreachable
}

; Function Attrs: inlinehint mustprogress uwtable
define linkonce_odr noundef i64 @_Z35convertBigUnsignedToPrimitiveAccessImET_RK11BigUnsigned(ptr noundef nonnull align 8 dereferenceable(16) %0) #8 comdat {
  %2 = alloca ptr, align 8
  store ptr %0, ptr %2, align 8, !tbaa !18
  %3 = load ptr, ptr %2, align 8, !tbaa !18
  %4 = call noundef i64 @_ZNK11BigUnsigned18convertToPrimitiveImEET_v(ptr noundef nonnull align 8 dereferenceable(16) %3)
  ret i64 %4
}

; Function Attrs: mustprogress uwtable
define linkonce_odr noundef i64 @_ZNK10BigInteger26convertToUnsignedPrimitiveImEET_v(ptr noundef nonnull align 8 dereferenceable(24) %0) #0 comdat align 2 {
  %2 = alloca ptr, align 8
  store ptr %0, ptr %2, align 8, !tbaa !6
  %3 = load ptr, ptr %2, align 8
  %4 = getelementptr inbounds nuw %class.BigInteger, ptr %3, i32 0, i32 0
  %5 = load i32, ptr %4, align 8, !tbaa !11
  %6 = icmp eq i32 %5, -1
  br i1 %6, label %7, label %9

7:                                                ; preds = %1
  %8 = call ptr @__cxa_allocate_exception(i64 8) #9
  store ptr @.str.6, ptr %8, align 16, !tbaa !23
  call void @__cxa_throw(ptr %8, ptr @_ZTIPKc, ptr null) #10
  unreachable

9:                                                ; preds = %1
  %10 = getelementptr inbounds nuw %class.BigInteger, ptr %3, i32 0, i32 1
  %11 = call noundef i64 @_Z35convertBigUnsignedToPrimitiveAccessImET_RK11BigUnsigned(ptr noundef nonnull align 8 dereferenceable(16) %10)
  ret i64 %11
}

; Function Attrs: mustprogress uwtable
define noundef i64 @_ZNK10BigInteger14toUnsignedLongEv(ptr noundef nonnull align 8 dereferenceable(24) %0) #0 align 2 {
  %2 = alloca ptr, align 8
  store ptr %0, ptr %2, align 8, !tbaa !6
  %3 = load ptr, ptr %2, align 8
  %4 = call noundef i64 @_ZNK10BigInteger26convertToUnsignedPrimitiveImEET_v(ptr noundef nonnull align 8 dereferenceable(24) %3)
  ret i64 %4
}