; Function Attrs: mustprogress uwtable
define noundef i64 @_ZNK10BigInteger14toUnsignedLongEv(ptr noundef nonnull readonly align 8 captures(none) dereferenceable(24) %0) local_unnamed_addr #0 align 2 {
  %2 = load i32, ptr %0, align 8, !tbaa !6
  %3 = icmp eq i32 %2, -1
  br i1 %3, label %4, label %6

4:                                                ; preds = %1
  %5 = tail call ptr @__cxa_allocate_exception(i64 8) #11
  store ptr @.str.6, ptr %5, align 16, !tbaa !24
  tail call void @__cxa_throw(ptr nonnull %5, ptr nonnull @_ZTIPKc, ptr null) #12
  unreachable

6:                                                ; preds = %1
  %7 = getelementptr inbounds nuw i8, ptr %0, i64 12
  %8 = load i32, ptr %7, align 4, !tbaa !16
  switch i32 %8, label %13 [
    i32 0, label %_ZNK10BigInteger26convertToUnsignedPrimitiveImEET_v.exit
    i32 1, label %9
  ]

9:                                                ; preds = %6
  %10 = getelementptr inbounds nuw i8, ptr %0, i64 16
  %11 = load ptr, ptr %10, align 8, !tbaa !18
  %12 = load i64, ptr %11, align 8, !tbaa !19
  br label %_ZNK10BigInteger26convertToUnsignedPrimitiveImEET_v.exit

13:                                               ; preds = %6
  %14 = tail call ptr @__cxa_allocate_exception(i64 8) #11
  store ptr @.str.7, ptr %14, align 16, !tbaa !24
  tail call void @__cxa_throw(ptr nonnull %14, ptr nonnull @_ZTIPKc, ptr null) #12
  unreachable

_ZNK10BigInteger26convertToUnsignedPrimitiveImEET_v.exit: ; preds = %6, %9
  %.04.i.i.i = phi i64 [ %12, %9 ], [ 0, %6 ]
  ret i64 %.04.i.i.i
}